target datalayout = "e-m:e-p270:32:32-p271:32:32-p272:64:64-i64:64-i128:128-f80:128-n8:16:32:64-S128"
target triple = "x86_64-pc-linux-gnu"

%struct.ossl_param_st = type { ptr, i32, ptr, i64, i64 }

@.str.53 = private unnamed_addr constant [31 x i8] c"../openssl/test/evp_kdf_test.c\00", align 1
@.str.67 = private unnamed_addr constant [2 x i8] c"0\00", align 1
@.str.71 = private unnamed_addr constant [5 x i8] c"salt\00", align 1
@test_kdf_kbkdf_6803_128.input_key = internal global [16 x i8] c"W\D0)r\98\FF\D9\D3]\E5\A4\7F\B4\BD\E2K", align 16
@test_kdf_kbkdf_6803_128.constants = internal global [3 x [5 x i8]] [[5 x i8] c"\00\00\00\02\99", [5 x i8] c"\00\00\00\02\AA", [5 x i8] c"\00\00\00\02U"], align 1
@test_kdf_kbkdf_6803_128.outputs = internal global [3 x [16 x i8]] [[16 x i8] c"\D1UwZ \9D\05\F0+8\D4*8\9EZV", [16 x i8] c"d\DF\83\F8ZS/\17W}\8C7\03W\96\AB", [16 x i8] c">O\BD\F3\0F\B8%\9CB\\\B6\C9o\1FF5"], align 16
@test_kdf_kbkdf_6803_128.iv = internal global [16 x i8] zeroinitializer, align 16
@.str.74 = private unnamed_addr constant [7 x i8] c"cipher\00", align 1
@.str.75 = private unnamed_addr constant [17 x i8] c"CAMELLIA-128-CBC\00", align 1
@.str.76 = private unnamed_addr constant [4 x i8] c"mac\00", align 1
@.str.77 = private unnamed_addr constant [5 x i8] c"CMAC\00", align 1
@.str.78 = private unnamed_addr constant [5 x i8] c"mode\00", align 1
@.str.79 = private unnamed_addr constant [9 x i8] c"FEEDBACK\00", align 1
@.str.80 = private unnamed_addr constant [4 x i8] c"key\00", align 1
@.str.81 = private unnamed_addr constant [5 x i8] c"seed\00", align 1
@.str.82 = private unnamed_addr constant [6 x i8] c"KBKDF\00", align 1
@.str.83 = private unnamed_addr constant [5 x i8] c"kctx\00", align 1
@.str.84 = private unnamed_addr constant [53 x i8] c"EVP_KDF_derive(kctx, result, sizeof(result), params)\00", align 1
@.str.85 = private unnamed_addr constant [7 x i8] c"result\00", align 1
@.str.86 = private unnamed_addr constant [11 x i8] c"outputs[i]\00", align 1

; Function Attrs: nounwind uwtable
define internal ptr @get_kdfbyname_libctx(ptr noundef %0, ptr noundef %1) #0 {
  %3 = alloca ptr, align 8
  %4 = alloca ptr, align 8
  %5 = alloca ptr, align 8
  %6 = alloca ptr, align 8
  store ptr %0, ptr %3, align 8, !tbaa !11
  store ptr %1, ptr %4, align 8, !tbaa !18
  call void @llvm.lifetime.start.p0(i64 8, ptr %5) #6
  %7 = load ptr, ptr %3, align 8, !tbaa !11
  %8 = load ptr, ptr %4, align 8, !tbaa !18
  %9 = call ptr @EVP_KDF_fetch(ptr noundef %7, ptr noundef %8, ptr noundef null)
  store ptr %9, ptr %5, align 8, !tbaa !26
  call void @llvm.lifetime.start.p0(i64 8, ptr %6) #6
  %10 = load ptr, ptr %5, align 8, !tbaa !26
  %11 = call ptr @EVP_KDF_CTX_new(ptr noundef %10)
  store ptr %11, ptr %6, align 8, !tbaa !8
  %12 = load ptr, ptr %5, align 8, !tbaa !26
  call void @EVP_KDF_free(ptr noundef %12)
  %13 = load ptr, ptr %6, align 8, !tbaa !8
  call void @llvm.lifetime.end.p0(i64 8, ptr %6) #6
  call void @llvm.lifetime.end.p0(i64 8, ptr %5) #6
  ret ptr %13
}

; Function Attrs: nounwind uwtable
define internal ptr @get_kdfbyname(ptr noundef %0) #0 {
  %2 = alloca ptr, align 8
  store ptr %0, ptr %2, align 8, !tbaa !18
  %3 = load ptr, ptr %2, align 8, !tbaa !18
  %4 = call ptr @get_kdfbyname_libctx(ptr noundef null, ptr noundef %3)
  ret ptr %4
}

; Function Attrs: nounwind uwtable
define internal i32 @test_kdf_kbkdf_6803_128() #0 {
  %1 = alloca i32, align 4
  %2 = alloca i32, align 4
  %3 = alloca i32, align 4
  %4 = alloca i32, align 4
  %5 = alloca ptr, align 8
  %6 = alloca [7 x %struct.ossl_param_st], align 16
  %7 = alloca [16 x i8], align 16
  %8 = alloca %struct.ossl_param_st, align 8
  %9 = alloca %struct.ossl_param_st, align 8
  %10 = alloca %struct.ossl_param_st, align 8
  %11 = alloca %struct.ossl_param_st, align 8
  %12 = alloca %struct.ossl_param_st, align 8
  %13 = alloca %struct.ossl_param_st, align 8
  %14 = alloca %struct.ossl_param_st, align 8
  %15 = alloca i32, align 4
  call void @llvm.lifetime.start.p0(i64 4, ptr %2) #6
  store i32 0, ptr %2, align 4, !tbaa !4
  call void @llvm.lifetime.start.p0(i64 4, ptr %3) #6
  call void @llvm.lifetime.start.p0(i64 4, ptr %4) #6
  call void @llvm.lifetime.start.p0(i64 8, ptr %5) #6
  call void @llvm.lifetime.start.p0(i64 280, ptr %6) #6
  call void @llvm.lifetime.start.p0(i64 16, ptr %7) #6
  call void @llvm.memset.p0.i64(ptr align 16 %7, i8 0, i64 16, i1 false)
  store i32 0, ptr %3, align 4, !tbaa !4
  br label %16

16:                                               ; preds = %79, %0
  %17 = load i32, ptr %3, align 4, !tbaa !4
  %18 = icmp slt i32 %17, 3
  br i1 %18, label %19, label %82

19:                                               ; preds = %16
  store i32 0, ptr %4, align 4, !tbaa !4
  %20 = load i32, ptr %4, align 4, !tbaa !4
  %21 = add nsw i32 %20, 1
  store i32 %21, ptr %4, align 4, !tbaa !4
  %22 = sext i32 %20 to i64
  %23 = getelementptr inbounds [7 x %struct.ossl_param_st], ptr %6, i64 0, i64 %22
  call void @llvm.lifetime.start.p0(i64 40, ptr %8) #6
  call void @OSSL_PARAM_construct_utf8_string(ptr dead_on_unwind writable sret(%struct.ossl_param_st) align 8 %8, ptr noundef @.str.74, ptr noundef @.str.75, i64 noundef 0)
  call void @llvm.memcpy.p0.p0.i64(ptr align 8 %23, ptr align 8 %8, i64 40, i1 false), !tbaa.struct !17
  call void @llvm.lifetime.end.p0(i64 40, ptr %8) #6
  %24 = load i32, ptr %4, align 4, !tbaa !4
  %25 = add nsw i32 %24, 1
  store i32 %25, ptr %4, align 4, !tbaa !4
  %26 = sext i32 %24 to i64
  %27 = getelementptr inbounds [7 x %struct.ossl_param_st], ptr %6, i64 0, i64 %26
  call void @llvm.lifetime.start.p0(i64 40, ptr %9) #6
  call void @OSSL_PARAM_construct_utf8_string(ptr dead_on_unwind writable sret(%struct.ossl_param_st) align 8 %9, ptr noundef @.str.76, ptr noundef @.str.77, i64 noundef 0)
  call void @llvm.memcpy.p0.p0.i64(ptr align 8 %27, ptr align 8 %9, i64 40, i1 false), !tbaa.struct !17
  call void @llvm.lifetime.end.p0(i64 40, ptr %9) #6
  %28 = load i32, ptr %4, align 4, !tbaa !4
  %29 = add nsw i32 %28, 1
  store i32 %29, ptr %4, align 4, !tbaa !4
  %30 = sext i32 %28 to i64
  %31 = getelementptr inbounds [7 x %struct.ossl_param_st], ptr %6, i64 0, i64 %30
  call void @llvm.lifetime.start.p0(i64 40, ptr %10) #6
  call void @OSSL_PARAM_construct_utf8_string(ptr dead_on_unwind writable sret(%struct.ossl_param_st) align 8 %10, ptr noundef @.str.78, ptr noundef @.str.79, i64 noundef 0)
  call void @llvm.memcpy.p0.p0.i64(ptr align 8 %31, ptr align 8 %10, i64 40, i1 false), !tbaa.struct !17
  call void @llvm.lifetime.end.p0(i64 40, ptr %10) #6
  %32 = load i32, ptr %4, align 4, !tbaa !4
  %33 = add nsw i32 %32, 1
  store i32 %33, ptr %4, align 4, !tbaa !4
  %34 = sext i32 %32 to i64
  %35 = getelementptr inbounds [7 x %struct.ossl_param_st], ptr %6, i64 0, i64 %34
  call void @llvm.lifetime.start.p0(i64 40, ptr %11) #6
  call void @OSSL_PARAM_construct_octet_string(ptr dead_on_unwind writable sret(%struct.ossl_param_st) align 8 %11, ptr noundef @.str.80, ptr noundef @test_kdf_kbkdf_6803_128.input_key, i64 noundef 16)
  call void @llvm.memcpy.p0.p0.i64(ptr align 8 %35, ptr align 8 %11, i64 40, i1 false), !tbaa.struct !17
  call void @llvm.lifetime.end.p0(i64 40, ptr %11) #6
  %36 = load i32, ptr %4, align 4, !tbaa !4
  %37 = add nsw i32 %36, 1
  store i32 %37, ptr %4, align 4, !tbaa !4
  %38 = sext i32 %36 to i64
  %39 = getelementptr inbounds [7 x %struct.ossl_param_st], ptr %6, i64 0, i64 %38
  call void @llvm.lifetime.start.p0(i64 40, ptr %12) #6
  %40 = load i32, ptr %3, align 4, !tbaa !4
  %41 = sext i32 %40 to i64
  %42 = getelementptr inbounds [3 x [5 x i8]], ptr @test_kdf_kbkdf_6803_128.constants, i64 0, i64 %41
  %43 = getelementptr inbounds [5 x i8], ptr %42, i64 0, i64 0
  call void @OSSL_PARAM_construct_octet_string(ptr dead_on_unwind writable sret(%struct.ossl_param_st) align 8 %12, ptr noundef @.str.71, ptr noundef %43, i64 noundef 5)
  call void @llvm.memcpy.p0.p0.i64(ptr align 8 %39, ptr align 8 %12, i64 40, i1 false), !tbaa.struct !17
  call void @llvm.lifetime.end.p0(i64 40, ptr %12) #6
  %44 = load i32, ptr %4, align 4, !tbaa !4
  %45 = add nsw i32 %44, 1
  store i32 %45, ptr %4, align 4, !tbaa !4
  %46 = sext i32 %44 to i64
  %47 = getelementptr inbounds [7 x %struct.ossl_param_st], ptr %6, i64 0, i64 %46
  call void @llvm.lifetime.start.p0(i64 40, ptr %13) #6
  call void @OSSL_PARAM_construct_octet_string(ptr dead_on_unwind writable sret(%struct.ossl_param_st) align 8 %13, ptr noundef @.str.81, ptr noundef @test_kdf_kbkdf_6803_128.iv, i64 noundef 16)
  call void @llvm.memcpy.p0.p0.i64(ptr align 8 %47, ptr align 8 %13, i64 40, i1 false), !tbaa.struct !17
  call void @llvm.lifetime.end.p0(i64 40, ptr %13) #6
  %48 = load i32, ptr %4, align 4, !tbaa !4
  %49 = sext i32 %48 to i64
  %50 = getelementptr inbounds [7 x %struct.ossl_param_st], ptr %6, i64 0, i64 %49
  call void @llvm.lifetime.start.p0(i64 40, ptr %14) #6
  call void @OSSL_PARAM_construct_end(ptr dead_on_unwind writable sret(%struct.ossl_param_st) align 8 %14)
  call void @llvm.memcpy.p0.p0.i64(ptr align 8 %50, ptr align 8 %14, i64 40, i1 false), !tbaa.struct !17
  call void @llvm.lifetime.end.p0(i64 40, ptr %14) #6
  %51 = call ptr @get_kdfbyname(ptr noundef @.str.82)
  store ptr %51, ptr %5, align 8, !tbaa !8
  %52 = load ptr, ptr %5, align 8, !tbaa !8
  %53 = call i32 @test_ptr(ptr noundef @.str.53, i32 noundef 1045, ptr noundef @.str.83, ptr noundef %52)
  %54 = icmp ne i32 %53, 0
  br i1 %54, label %55, label %70

55:                                               ; preds = %19
  %56 = load ptr, ptr %5, align 8, !tbaa !8
  %57 = getelementptr inbounds [16 x i8], ptr %7, i64 0, i64 0
  %58 = getelementptr inbounds [7 x %struct.ossl_param_st], ptr %6, i64 0, i64 0
  %59 = call i32 @EVP_KDF_derive(ptr noundef %56, ptr noundef %57, i64 noundef 16, ptr noundef %58)
  %60 = call i32 @test_int_gt(ptr noundef @.str.53, i32 noundef 1047, ptr noundef @.str.84, ptr noundef @.str.67, i32 noundef %59, i32 noundef 0)
  %61 = icmp ne i32 %60, 0
  br i1 %61, label %62, label %70

62:                                               ; preds = %55
  %63 = getelementptr inbounds [16 x i8], ptr %7, i64 0, i64 0
  %64 = load i32, ptr %3, align 4, !tbaa !4
  %65 = sext i32 %64 to i64
  %66 = getelementptr inbounds [3 x [16 x i8]], ptr @test_kdf_kbkdf_6803_128.outputs, i64 0, i64 %65
  %67 = getelementptr inbounds [16 x i8], ptr %66, i64 0, i64 0
  %68 = call i32 @test_mem_eq(ptr noundef @.str.53, i32 noundef 1049, ptr noundef @.str.85, ptr noundef @.str.86, ptr noundef %63, i64 noundef 16, ptr noundef %67, i64 noundef 16)
  %69 = icmp ne i32 %68, 0
  br label %70

70:                                               ; preds = %62, %55, %19
  %71 = phi i1 [ false, %55 ], [ false, %19 ], [ %69, %62 ]
  %72 = zext i1 %71 to i32
  store i32 %72, ptr %2, align 4, !tbaa !4
  %73 = load ptr, ptr %5, align 8, !tbaa !8
  call void @EVP_KDF_CTX_free(ptr noundef %73)
  %74 = load i32, ptr %2, align 4, !tbaa !4
  %75 = icmp ne i32 %74, 1
  br i1 %75, label %76, label %78

76:                                               ; preds = %70
  %77 = load i32, ptr %2, align 4, !tbaa !4
  store i32 %77, ptr %1, align 4
  store i32 1, ptr %15, align 4
  br label %84

78:                                               ; preds = %70
  br label %79

79:                                               ; preds = %78
  %80 = load i32, ptr %3, align 4, !tbaa !4
  %81 = add nsw i32 %80, 1
  store i32 %81, ptr %3, align 4, !tbaa !4
  br label %16, !llvm.loop !23

82:                                               ; preds = %16
  %83 = load i32, ptr %2, align 4, !tbaa !4
  store i32 %83, ptr %1, align 4
  store i32 1, ptr %15, align 4
  br label %84

84:                                               ; preds = %82, %76
  call void @llvm.lifetime.end.p0(i64 16, ptr %7) #6
  call void @llvm.lifetime.end.p0(i64 280, ptr %6) #6
  call void @llvm.lifetime.end.p0(i64 8, ptr %5) #6
  call void @llvm.lifetime.end.p0(i64 4, ptr %4) #6
  call void @llvm.lifetime.end.p0(i64 4, ptr %3) #6
  call void @llvm.lifetime.end.p0(i64 4, ptr %2) #6
  %85 = load i32, ptr %1, align 4
  ret i32 %85
}