; Function Attrs: nounwind uwtable
define internal range(i32 0, 2) i32 @test_kdf_kbkdf_6803_128() #0 {
  %1 = alloca [7 x %struct.ossl_param_st], align 16
  %2 = alloca [16 x i8], align 16
  %3 = alloca %struct.ossl_param_st, align 8
  %4 = alloca %struct.ossl_param_st, align 8
  %5 = alloca %struct.ossl_param_st, align 8
  %6 = alloca %struct.ossl_param_st, align 8
  %7 = alloca %struct.ossl_param_st, align 8
  %8 = alloca %struct.ossl_param_st, align 8
  %9 = alloca %struct.ossl_param_st, align 8
  call void @llvm.lifetime.start.p0(i64 280, ptr nonnull %1) #6
  call void @llvm.lifetime.start.p0(i64 16, ptr nonnull %2) #6
  call void @llvm.memset.p0.i64(ptr noundef nonnull align 16 dereferenceable(16) %2, i8 0, i64 16, i1 false)
  %10 = getelementptr inbounds nuw i8, ptr %1, i64 40
  %11 = getelementptr inbounds nuw i8, ptr %1, i64 80
  %12 = getelementptr inbounds nuw i8, ptr %1, i64 120
  %13 = getelementptr inbounds nuw i8, ptr %1, i64 160
  %14 = getelementptr inbounds nuw i8, ptr %1, i64 200
  %15 = getelementptr inbounds nuw i8, ptr %1, i64 240
  br label %17

16:                                               ; preds = %25
  %indvars.iv.next = add nuw nsw i64 %indvars.iv, 1
  %exitcond.not = icmp eq i64 %indvars.iv.next, 3
  br i1 %exitcond.not, label %.loopexit, label %17, !llvm.loop !8

17:                                               ; preds = %0, %16
  %indvars.iv = phi i64 [ 0, %0 ], [ %indvars.iv.next, %16 ]
  call void @llvm.lifetime.start.p0(i64 40, ptr nonnull %3) #6
  call void @OSSL_PARAM_construct_utf8_string(ptr dead_on_unwind nonnull writable sret(%struct.ossl_param_st) align 8 %3, ptr noundef nonnull @.str.74, ptr noundef nonnull @.str.75, i64 noundef 0) #6
  call void @llvm.memcpy.p0.p0.i64(ptr noundef nonnull align 16 dereferenceable(40) %1, ptr noundef nonnull align 8 dereferenceable(40) %3, i64 40, i1 false), !tbaa.struct !10
  call void @llvm.lifetime.end.p0(i64 40, ptr nonnull %3) #6
  call void @llvm.lifetime.start.p0(i64 40, ptr nonnull %4) #6
  call void @OSSL_PARAM_construct_utf8_string(ptr dead_on_unwind nonnull writable sret(%struct.ossl_param_st) align 8 %4, ptr noundef nonnull @.str.76, ptr noundef nonnull @.str.77, i64 noundef 0) #6
  call void @llvm.memcpy.p0.p0.i64(ptr noundef nonnull align 8 dereferenceable(40) %10, ptr noundef nonnull align 8 dereferenceable(40) %4, i64 40, i1 false), !tbaa.struct !10
  call void @llvm.lifetime.end.p0(i64 40, ptr nonnull %4) #6
  call void @llvm.lifetime.start.p0(i64 40, ptr nonnull %5) #6
  call void @OSSL_PARAM_construct_utf8_string(ptr dead_on_unwind nonnull writable sret(%struct.ossl_param_st) align 8 %5, ptr noundef nonnull @.str.78, ptr noundef nonnull @.str.79, i64 noundef 0) #6
  call void @llvm.memcpy.p0.p0.i64(ptr noundef nonnull align 16 dereferenceable(40) %11, ptr noundef nonnull align 8 dereferenceable(40) %5, i64 40, i1 false), !tbaa.struct !10
  call void @llvm.lifetime.end.p0(i64 40, ptr nonnull %5) #6
  call void @llvm.lifetime.start.p0(i64 40, ptr nonnull %6) #6
  call void @OSSL_PARAM_construct_octet_string(ptr dead_on_unwind nonnull writable sret(%struct.ossl_param_st) align 8 %6, ptr noundef nonnull @.str.80, ptr noundef nonnull @test_kdf_kbkdf_6803_128.input_key, i64 noundef 16) #6
  call void @llvm.memcpy.p0.p0.i64(ptr noundef nonnull align 8 dereferenceable(40) %12, ptr noundef nonnull align 8 dereferenceable(40) %6, i64 40, i1 false), !tbaa.struct !10
  call void @llvm.lifetime.end.p0(i64 40, ptr nonnull %6) #6
  call void @llvm.lifetime.start.p0(i64 40, ptr nonnull %7) #6
  %18 = getelementptr inbounds nuw [3 x [5 x i8]], ptr @test_kdf_kbkdf_6803_128.constants, i64 0, i64 %indvars.iv
  call void @OSSL_PARAM_construct_octet_string(ptr dead_on_unwind nonnull writable sret(%struct.ossl_param_st) align 8 %7, ptr noundef nonnull @.str.71, ptr noundef nonnull %18, i64 noundef 5) #6
  call void @llvm.memcpy.p0.p0.i64(ptr noundef nonnull align 16 dereferenceable(40) %13, ptr noundef nonnull align 8 dereferenceable(40) %7, i64 40, i1 false), !tbaa.struct !10
  call void @llvm.lifetime.end.p0(i64 40, ptr nonnull %7) #6
  call void @llvm.lifetime.start.p0(i64 40, ptr nonnull %8) #6
  call void @OSSL_PARAM_construct_octet_string(ptr dead_on_unwind nonnull writable sret(%struct.ossl_param_st) align 8 %8, ptr noundef nonnull @.str.81, ptr noundef nonnull @test_kdf_kbkdf_6803_128.iv, i64 noundef 16) #6
  call void @llvm.memcpy.p0.p0.i64(ptr noundef nonnull align 8 dereferenceable(40) %14, ptr noundef nonnull align 8 dereferenceable(40) %8, i64 40, i1 false), !tbaa.struct !10
  call void @llvm.lifetime.end.p0(i64 40, ptr nonnull %8) #6
  call void @llvm.lifetime.start.p0(i64 40, ptr nonnull %9) #6
  call void @OSSL_PARAM_construct_end(ptr dead_on_unwind nonnull writable sret(%struct.ossl_param_st) align 8 %9) #6
  call void @llvm.memcpy.p0.p0.i64(ptr noundef nonnull align 16 dereferenceable(40) %15, ptr noundef nonnull align 8 dereferenceable(40) %9, i64 40, i1 false), !tbaa.struct !10
  call void @llvm.lifetime.end.p0(i64 40, ptr nonnull %9) #6
  %19 = call ptr @EVP_KDF_fetch(ptr noundef null, ptr noundef nonnull @.str.82, ptr noundef null) #6
  %20 = call ptr @EVP_KDF_CTX_new(ptr noundef %19) #6
  call void @EVP_KDF_free(ptr noundef %19) #6
  %21 = call i32 @test_ptr(ptr noundef nonnull @.str.53, i32 noundef 1045, ptr noundef nonnull @.str.83, ptr noundef %20) #6
  %.not = icmp eq i32 %21, 0
  br i1 %.not, label %.critedge, label %22

22:                                               ; preds = %17
  %23 = call i32 @EVP_KDF_derive(ptr noundef %20, ptr noundef nonnull %2, i64 noundef 16, ptr noundef nonnull %1) #6
  %24 = call i32 @test_int_gt(ptr noundef nonnull @.str.53, i32 noundef 1047, ptr noundef nonnull @.str.84, ptr noundef nonnull @.str.67, i32 noundef %23, i32 noundef 0) #6
  %.not20 = icmp eq i32 %24, 0
  br i1 %.not20, label %.critedge, label %25

25:                                               ; preds = %22
  %26 = getelementptr inbounds nuw [3 x [16 x i8]], ptr @test_kdf_kbkdf_6803_128.outputs, i64 0, i64 %indvars.iv
  %27 = call i32 @test_mem_eq(ptr noundef nonnull @.str.53, i32 noundef 1049, ptr noundef nonnull @.str.85, ptr noundef nonnull @.str.86, ptr noundef nonnull %2, i64 noundef 16, ptr noundef nonnull %26, i64 noundef 16) #6
  %.not22 = icmp eq i32 %27, 0
  call void @EVP_KDF_CTX_free(ptr noundef %20) #6
  br i1 %.not22, label %.loopexit, label %16

.critedge:                                        ; preds = %17, %22
  call void @EVP_KDF_CTX_free(ptr noundef %20) #6
  br label %.loopexit

.loopexit:                                        ; preds = %16, %25, %.critedge
  %.0 = phi i32 [ 0, %.critedge ], [ 1, %16 ], [ 0, %25 ]
  call void @llvm.lifetime.end.p0(i64 16, ptr nonnull %2) #6
  call void @llvm.lifetime.end.p0(i64 280, ptr nonnull %1) #6
  ret i32 %.0
}